target datalayout = "e-m:e-p270:32:32-p271:32:32-p272:64:64-i64:64-i128:128-f80:128-n8:16:32:64-S128"
target triple = "x86_64-pc-linux-gnu"

%"class.std::__cxx11::basic_string" = type { %"struct.std::__cxx11::basic_string<char>::_Alloc_hider", i64, %union.anon }
%"struct.std::__cxx11::basic_string<char>::_Alloc_hider" = type { ptr }
%union.anon = type { i64, [8 x i8] }
%"struct.cv::ExifEntry_t" = type { %"class.std::vector.20", %"class.std::__cxx11::basic_string", float, double, i32, i32, i16, i16, i16, i8, i8 }
%"class.std::vector.20" = type { %"struct.std::_Vector_base.21" }
%"struct.std::_Vector_base.21" = type { %"struct.std::_Vector_base<std::pair<unsigned int, unsigned int>, std::allocator<std::pair<unsigned int, unsigned int>>>::_Vector_impl" }
%"struct.std::_Vector_base<std::pair<unsigned int, unsigned int>, std::allocator<std::pair<unsigned int, unsigned int>>>::_Vector_impl" = type { %"struct.std::_Vector_base<std::pair<unsigned int, unsigned int>, std::allocator<std::pair<unsigned int, unsigned int>>>::_Vector_impl_data" }
%"struct.std::_Vector_base<std::pair<unsigned int, unsigned int>, std::allocator<std::pair<unsigned int, unsigned int>>>::_Vector_impl_data" = type { ptr, ptr, ptr }

; Function Attrs: mustprogress uwtable
define internal void @_ZN2cvL13ExifTransformEiRKNS_12_OutputArrayE(i32 noundef %0, ptr noundef nonnull align 8 dereferenceable(24) %1) #5 {
  %3 = alloca i32, align 4
  %4 = alloca ptr, align 8
  store i32 %0, ptr %3, align 4, !tbaa !10
  store ptr %1, ptr %4, align 8, !tbaa !12
  %5 = load i32, ptr %3, align 4, !tbaa !10
  switch i32 %5, label %33 [
    i32 1, label %34
    i32 2, label %6
    i32 3, label %9
    i32 4, label %12
    i32 5, label %15
    i32 6, label %18
    i32 7, label %23
    i32 8, label %28
  ]

6:                                                ; preds = %2
  %7 = load ptr, ptr %4, align 8, !tbaa !12
  %8 = load ptr, ptr %4, align 8, !tbaa !12
  call void @_ZN2cv4flipERKNS_11_InputArrayERKNS_12_OutputArrayEi(ptr noundef nonnull align 8 dereferenceable(24) %7, ptr noundef nonnull align 8 dereferenceable(24) %8, i32 noundef 1)
  br label %34

9:                                                ; preds = %2
  %10 = load ptr, ptr %4, align 8, !tbaa !12
  %11 = load ptr, ptr %4, align 8, !tbaa !12
  call void @_ZN2cv4flipERKNS_11_InputArrayERKNS_12_OutputArrayEi(ptr noundef nonnull align 8 dereferenceable(24) %10, ptr noundef nonnull align 8 dereferenceable(24) %11, i32 noundef -1)
  br label %34

12:                                               ; preds = %2
  %13 = load ptr, ptr %4, align 8, !tbaa !12
  %14 = load ptr, ptr %4, align 8, !tbaa !12
  call void @_ZN2cv4flipERKNS_11_InputArrayERKNS_12_OutputArrayEi(ptr noundef nonnull align 8 dereferenceable(24) %13, ptr noundef nonnull align 8 dereferenceable(24) %14, i32 noundef 0)
  br label %34

15:                                               ; preds = %2
  %16 = load ptr, ptr %4, align 8, !tbaa !12
  %17 = load ptr, ptr %4, align 8, !tbaa !12
  call void @_ZN2cv9transposeERKNS_11_InputArrayERKNS_12_OutputArrayE(ptr noundef nonnull align 8 dereferenceable(24) %16, ptr noundef nonnull align 8 dereferenceable(24) %17)
  br label %34

18:                                               ; preds = %2
  %19 = load ptr, ptr %4, align 8, !tbaa !12
  %20 = load ptr, ptr %4, align 8, !tbaa !12
  call void @_ZN2cv9transposeERKNS_11_InputArrayERKNS_12_OutputArrayE(ptr noundef nonnull align 8 dereferenceable(24) %19, ptr noundef nonnull align 8 dereferenceable(24) %20)
  %21 = load ptr, ptr %4, align 8, !tbaa !12
  %22 = load ptr, ptr %4, align 8, !tbaa !12
  call void @_ZN2cv4flipERKNS_11_InputArrayERKNS_12_OutputArrayEi(ptr noundef nonnull align 8 dereferenceable(24) %21, ptr noundef nonnull align 8 dereferenceable(24) %22, i32 noundef 1)
  br label %34

23:                                               ; preds = %2
  %24 = load ptr, ptr %4, align 8, !tbaa !12
  %25 = load ptr, ptr %4, align 8, !tbaa !12
  call void @_ZN2cv9transposeERKNS_11_InputArrayERKNS_12_OutputArrayE(ptr noundef nonnull align 8 dereferenceable(24) %24, ptr noundef nonnull align 8 dereferenceable(24) %25)
  %26 = load ptr, ptr %4, align 8, !tbaa !12
  %27 = load ptr, ptr %4, align 8, !tbaa !12
  call void @_ZN2cv4flipERKNS_11_InputArrayERKNS_12_OutputArrayEi(ptr noundef nonnull align 8 dereferenceable(24) %26, ptr noundef nonnull align 8 dereferenceable(24) %27, i32 noundef -1)
  br label %34

28:                                               ; preds = %2
  %29 = load ptr, ptr %4, align 8, !tbaa !12
  %30 = load ptr, ptr %4, align 8, !tbaa !12
  call void @_ZN2cv9transposeERKNS_11_InputArrayERKNS_12_OutputArrayE(ptr noundef nonnull align 8 dereferenceable(24) %29, ptr noundef nonnull align 8 dereferenceable(24) %30)
  %31 = load ptr, ptr %4, align 8, !tbaa !12
  %32 = load ptr, ptr %4, align 8, !tbaa !12
  call void @_ZN2cv4flipERKNS_11_InputArrayERKNS_12_OutputArrayEi(ptr noundef nonnull align 8 dereferenceable(24) %31, ptr noundef nonnull align 8 dereferenceable(24) %32, i32 noundef 0)
  br label %34

33:                                               ; preds = %2
  br label %34

34:                                               ; preds = %33, %28, %23, %18, %15, %12, %9, %6, %2
  ret void
}

; Function Attrs: mustprogress uwtable
define internal void @_ZN2cvL20ApplyExifOrientationENS_11ExifEntry_tERKNS_12_OutputArrayE(ptr noundef %0, ptr noundef nonnull align 8 dereferenceable(24) %1) #5 {
  %3 = alloca ptr, align 8
  %4 = alloca ptr, align 8
  %5 = alloca i32, align 4
  store ptr %0, ptr %3, align 8, !tbaa !168
  store ptr %1, ptr %4, align 8, !tbaa !12
  call void @llvm.lifetime.start.p0(i64 4, ptr %5) #3
  store i32 1, ptr %5, align 4, !tbaa !10
  %6 = getelementptr inbounds nuw %"struct.cv::ExifEntry_t", ptr %0, i32 0, i32 6
  %7 = load i16, ptr %6, align 8, !tbaa !170
  %8 = zext i16 %7 to i32
  %9 = icmp ne i32 %8, 65535
  br i1 %9, label %10, label %16

10:                                               ; preds = %2
  %11 = getelementptr inbounds nuw %"struct.cv::ExifEntry_t", ptr %0, i32 0, i32 7
  %12 = load i16, ptr %11, align 2, !tbaa !180
  %13 = zext i16 %12 to i32
  store i32 %13, ptr %5, align 4, !tbaa !10
  %14 = load i32, ptr %5, align 4, !tbaa !10
  %15 = load ptr, ptr %4, align 8, !tbaa !12
  call void @_ZN2cvL13ExifTransformEiRKNS_12_OutputArrayE(i32 noundef %14, ptr noundef nonnull align 8 dereferenceable(24) %15)
  br label %16

16:                                               ; preds = %10, %2
  call void @llvm.lifetime.end.p0(i64 4, ptr %5) #3
  ret void
}