; Function Attrs: mustprogress uwtable
define internal fastcc void @_ZN2cvL20ApplyExifOrientationENS_11ExifEntry_tERKNS_12_OutputArrayE(i16 %.80.val, i16 %.82.val, ptr noundef nonnull align 8 dereferenceable(24) %0) unnamed_addr #4 {
  %.not = icmp eq i16 %.80.val, -1
  br i1 %.not, label %_ZN2cvL13ExifTransformEiRKNS_12_OutputArrayE.exit, label %2

2:                                                ; preds = %1
  switch i16 %.82.val, label %_ZN2cvL13ExifTransformEiRKNS_12_OutputArrayE.exit [
    i16 8, label %9
    i16 2, label %3
    i16 3, label %4
    i16 4, label %5
    i16 5, label %6
    i16 6, label %7
    i16 7, label %8
  ]

3:                                                ; preds = %2
  tail call void @_ZN2cv4flipERKNS_11_InputArrayERKNS_12_OutputArrayEi(ptr noundef nonnull align 8 dereferenceable(24) %0, ptr noundef nonnull align 8 dereferenceable(24) %0, i32 noundef 1)
  br label %_ZN2cvL13ExifTransformEiRKNS_12_OutputArrayE.exit

4:                                                ; preds = %2
  tail call void @_ZN2cv4flipERKNS_11_InputArrayERKNS_12_OutputArrayEi(ptr noundef nonnull align 8 dereferenceable(24) %0, ptr noundef nonnull align 8 dereferenceable(24) %0, i32 noundef -1)
  br label %_ZN2cvL13ExifTransformEiRKNS_12_OutputArrayE.exit

5:                                                ; preds = %2
  tail call void @_ZN2cv4flipERKNS_11_InputArrayERKNS_12_OutputArrayEi(ptr noundef nonnull align 8 dereferenceable(24) %0, ptr noundef nonnull align 8 dereferenceable(24) %0, i32 noundef 0)
  br label %_ZN2cvL13ExifTransformEiRKNS_12_OutputArrayE.exit

6:                                                ; preds = %2
  tail call void @_ZN2cv9transposeERKNS_11_InputArrayERKNS_12_OutputArrayE(ptr noundef nonnull align 8 dereferenceable(24) %0, ptr noundef nonnull align 8 dereferenceable(24) %0)
  br label %_ZN2cvL13ExifTransformEiRKNS_12_OutputArrayE.exit

7:                                                ; preds = %2
  tail call void @_ZN2cv9transposeERKNS_11_InputArrayERKNS_12_OutputArrayE(ptr noundef nonnull align 8 dereferenceable(24) %0, ptr noundef nonnull align 8 dereferenceable(24) %0)
  tail call void @_ZN2cv4flipERKNS_11_InputArrayERKNS_12_OutputArrayEi(ptr noundef nonnull align 8 dereferenceable(24) %0, ptr noundef nonnull align 8 dereferenceable(24) %0, i32 noundef 1)
  br label %_ZN2cvL13ExifTransformEiRKNS_12_OutputArrayE.exit

8:                                                ; preds = %2
  tail call void @_ZN2cv9transposeERKNS_11_InputArrayERKNS_12_OutputArrayE(ptr noundef nonnull align 8 dereferenceable(24) %0, ptr noundef nonnull align 8 dereferenceable(24) %0)
  tail call void @_ZN2cv4flipERKNS_11_InputArrayERKNS_12_OutputArrayEi(ptr noundef nonnull align 8 dereferenceable(24) %0, ptr noundef nonnull align 8 dereferenceable(24) %0, i32 noundef -1)
  br label %_ZN2cvL13ExifTransformEiRKNS_12_OutputArrayE.exit

9:                                                ; preds = %2
  tail call void @_ZN2cv9transposeERKNS_11_InputArrayERKNS_12_OutputArrayE(ptr noundef nonnull align 8 dereferenceable(24) %0, ptr noundef nonnull align 8 dereferenceable(24) %0)
  tail call void @_ZN2cv4flipERKNS_11_InputArrayERKNS_12_OutputArrayEi(ptr noundef nonnull align 8 dereferenceable(24) %0, ptr noundef nonnull align 8 dereferenceable(24) %0, i32 noundef 0)
  br label %_ZN2cvL13ExifTransformEiRKNS_12_OutputArrayE.exit

_ZN2cvL13ExifTransformEiRKNS_12_OutputArrayE.exit: ; preds = %9, %8, %7, %6, %5, %4, %3, %2, %1
  ret void
}